{
   A
   Memcheck:Free
   fun:_ZdlPv
   ...
   fun:(below main)
}

{
   B
   Memcheck:Leak
   match-leak-kinds: definite
   fun:_Znwm
   ...
   fun:(below main)
}

{
   C
   Memcheck:Leak
   match-leak-kinds: definite
   fun:_Znwm
   fun:_ZN4node20ImmutableAsciiSource17CreateFromLiteralEPKcm
   fun:_ZN4node10MainSourceEv
   fun:_ZN4node4LoadEN2v86HandleINS0_6ObjectEEE
   fun:_ZN4node5StartEiPPc
   fun:(below main)
}

{
   D
   Memcheck:Leak
   match-leak-kinds: definite
   fun:_Znwm
   fun:_ZN4node6Buffer3NewERKN2v89ArgumentsE
   fun:_ZN2v88internalL30Builtin_HandleApiCallConstructENS0_12_GLOBAL__N_116BuiltinArgumentsILNS0_21BuiltinExtraArgumentsE1EEEPNS0_7IsolateE
}

{
   E
   Memcheck:Leak
   match-leak-kinds: definite
   fun:_Znwm
   fun:_ZN4node20ImmutableAsciiSource17CreateFromLiteralEPKcm
   fun:_ZN4node16DefineJavaScriptEN2v86HandleINS0_6ObjectEEE
   fun:_ZN4nodeL7BindingERKN2v89ArgumentsE
   fun:_ZN2v88internalL21Builtin_HandleApiCallENS0_12_GLOBAL__N_116BuiltinArgumentsILNS0_21BuiltinExtraArgumentsE1EEEPNS0_7IsolateE
    ...
   fun:_ZN2v88internalL6InvokeEbNS0_6HandleINS0_10JSFunctionEEENS1_INS0_6ObjectEEEiPS5_Pb
}

{
   F
   Memcheck:Leak
   match-leak-kinds: indirect
   fun:_Znam
   fun:_ZN4node6Buffer7ReplaceEPcmPFvS1_PvES2_
   fun:_ZN4node6Buffer3NewERKN2v89ArgumentsE
   fun:_ZN2v88internalL30Builtin_HandleApiCallConstructENS0_12_GLOBAL__N_116BuiltinArgumentsILNS0_21BuiltinExtraArgumentsE1EEEPNS0_7IsolateE
}

{
   G
   Memcheck:Leak
   match-leak-kinds: definite
   fun:_Znwm
   fun:_ZN4node6Buffer3NewERKN2v89ArgumentsE
   fun:_ZN2v88internalL30Builtin_HandleApiCallConstructENS0_12_GLOBAL__N_116BuiltinArgumentsILNS0_21BuiltinExtraArgumentsE1EEEPNS0_7IsolateE
}

{
   H
   Memcheck:Leak
   match-leak-kinds: possible
   fun:_Znwm
   fun:_ZN4node10SignalWrap3NewERKN2v89ArgumentsE
   fun:_ZN2v88internalL30Builtin_HandleApiCallConstructENS0_12_GLOBAL__N_116BuiltinArgumentsILNS0_21BuiltinExtraArgumentsE1EEEPNS0_7IsolateE
   ...
   fun:_ZN2v88internalL6InvokeEbNS0_6HandleINS0_10JSFunctionEEENS1_INS0_6ObjectEEEiPS5_Pb
}

{
   I
   Memcheck:Leak
   match-leak-kinds: possible
   fun:_Znwm
   fun:_ZN4node7TTYWrap3NewERKN2v89ArgumentsE
   fun:_ZN2v88internalL30Builtin_HandleApiCallConstructENS0_12_GLOBAL__N_116BuiltinArgumentsILNS0_21BuiltinExtraArgumentsE1EEEPNS0_7IsolateE
}

{
   J
   Memcheck:Leak
   match-leak-kinds: indirect
   fun:_Znam
   fun:_ZN4node6Buffer7ReplaceEPcmPFvS1_PvES2_
   fun:_ZN4node6Buffer3NewEPKcm
   fun:_ZN12_GLOBAL__N_113TransformDoneEP9uv_work_si
   fun:uv__work_done
   fun:uv__async_event
   fun:uv__async_io
   fun:uv__io_poll
   fun:uv_run
   fun:_ZN4node5StartEiPPc
}

{
   K
   Memcheck:Leak
   match-leak-kinds: indirect
   fun:_Znam
   fun:_ZN4node6Buffer7ReplaceEPcmPFvS1_PvES2_
   fun:_ZN4node6Buffer3NewEPKcm
   fun:_ZN12_GLOBAL__N_113TransformDoneEP9uv_work_si
   fun:uv__work_done
   fun:uv__async_event
   fun:uv__async_io
   fun:uv__io_poll
   fun:uv_run
   fun:_ZN4node5StartEiPPc
}


{
   L
   Memcheck:Leak
   match-leak-kinds: possible
   fun:_Znam
   fun:_ZN4node6Buffer7ReplaceEPcmPFvS1_PvES2_
   fun:_ZN4node6Buffer3NewEPKcm
   fun:_ZN12_GLOBAL__N_113TransformDoneEP9uv_work_si
   fun:uv__work_done
   fun:uv__async_event
   fun:uv__async_io
   fun:uv__io_poll
   fun:uv_run
   fun:_ZN4node5StartEiPPc
}

{
   M
   Memcheck:Leak
   match-leak-kinds: definite
   fun:_Znam
   fun:_ZN12_GLOBAL__N_114TransformAsyncERKN2v89ArgumentsE
   fun:_ZN2v88internalL21Builtin_HandleApiCallENS0_12_GLOBAL__N_116BuiltinArgumentsILNS0_21BuiltinExtraArgumentsE1EEEPNS0_7IsolateE
}
